; ModuleID = '20/515.c'
source_filename = "20/515.c"
target datalayout = "e-m:e-p270:32:32-p271:32:32-p272:64:64-i64:64-f80:128-n8:16:32:64-S128"
target triple = "x86_64-pc-linux-gnu"

@.str = private unnamed_addr constant [5 x i8] c"%s%s\00", align 1
@.str.1 = private unnamed_addr constant [4 x i8] c"%s\0A\00", align 1

; Function Attrs: noinline nounwind uwtable
define dso_local i32 @main() #0 {
  %1 = alloca i32, align 4
  %2 = alloca [15 x i8], align 1
  %3 = alloca [4 x i8], align 1
  %4 = alloca i8*, align 8
  %5 = alloca i32, align 4
  %6 = alloca i32, align 4
  %7 = alloca i32, align 4
  %8 = alloca i32, align 4
  store i32 0, i32* %1, align 4
  br label %9

9:                                                ; preds = %61, %0
  %10 = getelementptr inbounds [15 x i8], [15 x i8]* %2, i64 0, i64 0
  %11 = getelementptr inbounds [4 x i8], [4 x i8]* %3, i64 0, i64 0
  %12 = call i32 (i8*, ...) @__isoc99_scanf(i8* getelementptr inbounds ([5 x i8], [5 x i8]* @.str, i64 0, i64 0), i8* %10, i8* %11)
  %13 = icmp ne i32 %12, -1
  br i1 %13, label %14, label %80

14:                                               ; preds = %9
  %15 = getelementptr inbounds [15 x i8], [15 x i8]* %2, i64 0, i64 0
  store i8* %15, i8** %4, align 8
  %16 = getelementptr inbounds [15 x i8], [15 x i8]* %2, i64 0, i64 0
  %17 = call i64 @strlen(i8* %16) #3
  %18 = trunc i64 %17 to i32
  store i32 %18, i32* %6, align 4
  store i32 0, i32* %5, align 4
  br label %19

19:                                               ; preds = %39, %14
  %20 = load i32, i32* %5, align 4
  %21 = load i32, i32* %6, align 4
  %22 = icmp slt i32 %20, %21
  br i1 %22, label %23, label %42

23:                                               ; preds = %19
  %24 = load i8*, i8** %4, align 8
  %25 = load i8, i8* %24, align 1
  %26 = sext i8 %25 to i32
  %27 = load i32, i32* %5, align 4
  %28 = sext i32 %27 to i64
  %29 = getelementptr inbounds [15 x i8], [15 x i8]* %2, i64 0, i64 %28
  %30 = load i8, i8* %29, align 1
  %31 = sext i8 %30 to i32
  %32 = icmp slt i32 %26, %31
  br i1 %32, label %33, label %38

33:                                               ; preds = %23
  %34 = load i32, i32* %5, align 4
  %35 = sext i32 %34 to i64
  %36 = getelementptr inbounds [15 x i8], [15 x i8]* %2, i64 0, i64 %35
  store i8* %36, i8** %4, align 8
  %37 = load i32, i32* %5, align 4
  store i32 %37, i32* %7, align 4
  br label %38

38:                                               ; preds = %33, %23
  br label %39

39:                                               ; preds = %38
  %40 = load i32, i32* %5, align 4
  %41 = add nsw i32 %40, 1
  store i32 %41, i32* %5, align 4
  br label %19

42:                                               ; preds = %19
  %43 = load i32, i32* %6, align 4
  %44 = sub nsw i32 %43, 1
  store i32 %44, i32* %5, align 4
  br label %45

45:                                               ; preds = %58, %42
  %46 = load i32, i32* %5, align 4
  %47 = load i32, i32* %7, align 4
  %48 = icmp sgt i32 %46, %47
  br i1 %48, label %49, label %61

49:                                               ; preds = %45
  %50 = load i32, i32* %5, align 4
  %51 = sext i32 %50 to i64
  %52 = getelementptr inbounds [15 x i8], [15 x i8]* %2, i64 0, i64 %51
  %53 = load i8, i8* %52, align 1
  %54 = load i32, i32* %5, align 4
  %55 = add nsw i32 %54, 3
  %56 = sext i32 %55 to i64
  %57 = getelementptr inbounds [15 x i8], [15 x i8]* %2, i64 0, i64 %56
  store i8 %53, i8* %57, align 1
  br label %58

58:                                               ; preds = %49
  %59 = load i32, i32* %5, align 4
  %60 = add nsw i32 %59, -1
  store i32 %60, i32* %5, align 4
  br label %45

61:                                               ; preds = %45
  %62 = getelementptr inbounds [4 x i8], [4 x i8]* %3, i64 0, i64 0
  %63 = load i8, i8* %62, align 1
  %64 = load i8*, i8** %4, align 8
  %65 = getelementptr inbounds i8, i8* %64, i64 1
  store i8 %63, i8* %65, align 1
  %66 = getelementptr inbounds [4 x i8], [4 x i8]* %3, i64 0, i64 1
  %67 = load i8, i8* %66, align 1
  %68 = load i8*, i8** %4, align 8
  %69 = getelementptr inbounds i8, i8* %68, i64 2
  store i8 %67, i8* %69, align 1
  %70 = getelementptr inbounds [4 x i8], [4 x i8]* %3, i64 0, i64 2
  %71 = load i8, i8* %70, align 1
  %72 = load i8*, i8** %4, align 8
  %73 = getelementptr inbounds i8, i8* %72, i64 3
  store i8 %71, i8* %73, align 1
  %74 = load i32, i32* %6, align 4
  %75 = add nsw i32 %74, 3
  %76 = sext i32 %75 to i64
  %77 = getelementptr inbounds [15 x i8], [15 x i8]* %2, i64 0, i64 %76
  store i8 0, i8* %77, align 1
  %78 = getelementptr inbounds [15 x i8], [15 x i8]* %2, i64 0, i64 0
  %79 = call i32 (i8*, ...) @printf(i8* getelementptr inbounds ([4 x i8], [4 x i8]* @.str.1, i64 0, i64 0), i8* %78)
  br label %9

80:                                               ; preds = %9
  ret i32 0
}

declare dso_local i32 @__isoc99_scanf(i8*, ...) #1

; Function Attrs: nounwind readonly
declare dso_local i64 @strlen(i8*) #2

declare dso_local i32 @printf(i8*, ...) #1


!llvm.module.flags = !{!0}
!llvm.ident = !{!1}

!0 = !{i32 1, !"wchar_size", i32 4}
!1 = !{!"clang version 10.0.0-4ubuntu1 "}
